; Function Attrs: nounwind sspstrong uwtable
define internal void @snapshot_access_refresh_filename(ptr noundef %bs) #0 {
entry:
  %exact_filename = getelementptr inbounds nuw i8, ptr %bs, i64 12368
  %file = getelementptr inbounds nuw i8, ptr %bs, i64 16840
  %0 = load ptr, ptr %file, align 8
  %1 = load ptr, ptr %0, align 8
  %filename = getelementptr inbounds nuw i8, ptr %1, i64 49
  tail call void @pstrcpy(ptr noundef nonnull %exact_filename, i32 noundef 4096, ptr noundef nonnull %filename) #4
  ret void
}